; Function Attrs: nounwind uwtable
define internal noundef i32 @_on_chunk_complete(ptr readnone captures(none) %0) #0 {
  %2 = load i64, ptr getelementptr inbounds nuw (i8, ptr @slurm_conf, i64 320), align 8
  %3 = and i64 %2, 1024
  %.not = icmp eq i64 %3, 0
  br i1 %.not, label %8, label %4

4:                                                ; preds = %1
  %5 = tail call i32 @get_log_level() #8
  %6 = icmp sgt i32 %5, 3
  br i1 %6, label %7, label %8

7:                                                ; preds = %4
  tail call void (i32, ptr, ...) @log_var(i32 noundef 4, ptr noundef nonnull @.str.20, ptr noundef nonnull @__func__._on_chunk_complete) #8
  br label %8

8:                                                ; preds = %1, %4, %7
  ret i32 0
}